; Function Attrs: mustprogress uwtable
define hidden void @_ZN4LIEF5MachO22ChainedBindingInfoListC2EOS1_(ptr noundef nonnull align 8 dereferenceable(112) %0, ptr noundef nonnull align 8 dereferenceable(112) %1) unnamed_addr #0 align 2 {
  tail call void @_ZN4LIEF5MachO18ChainedBindingInfoC2EOS1_(ptr noundef nonnull align 8 dereferenceable(88) %0, ptr noundef nonnull align 8 dereferenceable(88) %1)
  store ptr getelementptr inbounds ({ [10 x ptr] }, ptr @_ZTVN4LIEF5MachO22ChainedBindingInfoListE, i64 0, i32 0, i64 2), ptr %0, align 8
  %3 = getelementptr inbounds i8, ptr %0, i64 88
  %4 = getelementptr inbounds i8, ptr %1, i64 88
  %5 = load ptr, ptr %4, align 8
  store ptr %5, ptr %3, align 8
  %6 = getelementptr inbounds i8, ptr %0, i64 96
  %7 = getelementptr inbounds i8, ptr %1, i64 96
  %8 = load ptr, ptr %7, align 8
  store ptr %8, ptr %6, align 8
  %9 = getelementptr inbounds i8, ptr %0, i64 104
  %10 = getelementptr inbounds i8, ptr %1, i64 104
  %11 = load ptr, ptr %10, align 8
  store ptr %11, ptr %9, align 8
  tail call void @llvm.memset.p0.i64(ptr noundef nonnull align 8 dereferenceable(24) %4, i8 0, i64 24, i1 false)
  ret void
}